target datalayout = "e-m:e-p270:32:32-p271:32:32-p272:64:64-i64:64-i128:128-f80:128-n8:16:32:64-S128"
target triple = "x86_64-pc-linux-gnu"

%struct.sio_par = type { i32, i32, i32, i32, i32, i32, i32, i32, i32, i32, i32, i32, [3 x i32], i32 }
%struct.PaSndioStream = type { %struct.PaUtilStreamRepresentation, %struct.PaUtilBufferProcessor, ptr, %struct.sio_par, i32, i32, i32, i64, ptr, ptr, i64, i64, i64 }
%struct.PaUtilStreamRepresentation = type { i64, ptr, ptr, ptr, ptr, ptr, %struct.PaStreamInfo }
%struct.PaStreamInfo = type { i32, double, double, double }
%struct.PaUtilBufferProcessor = type { i64, i64, i32, i32, i32, i32, i64, i32, i32, i32, i32, ptr, ptr, i32, i32, i32, i32, ptr, ptr, i64, i64, ptr, ptr, i64, ptr, ptr, i64, ptr, i64, i32, [2 x i64], [2 x ptr], i32, [2 x i64], [2 x ptr], %struct.PaUtilTriangularDitherGenerator, double, ptr, ptr }
%struct.PaUtilTriangularDitherGenerator = type { i32, i32, i32 }

; Function Attrs: nounwind uwtable
define internal double @GetStreamTime(ptr noundef %0) #0 {
  %2 = alloca ptr, align 8
  %3 = alloca ptr, align 8
  store ptr %0, ptr %2, align 8
  %4 = load ptr, ptr %2, align 8
  store ptr %4, ptr %3, align 8
  %5 = load ptr, ptr %3, align 8
  %6 = getelementptr inbounds nuw %struct.PaSndioStream, ptr %5, i32 0, i32 7
  %7 = load i64, ptr %6, align 8
  %8 = uitofp i64 %7 to double
  %9 = load ptr, ptr %3, align 8
  %10 = getelementptr inbounds nuw %struct.PaSndioStream, ptr %9, i32 0, i32 0
  %11 = getelementptr inbounds nuw %struct.PaUtilStreamRepresentation, ptr %10, i32 0, i32 6
  %12 = getelementptr inbounds nuw %struct.PaStreamInfo, ptr %11, i32 0, i32 3
  %13 = load double, ptr %12, align 8
  %14 = fdiv double %8, %13
  ret double %14
}