; Function Attrs: mustprogress nofree norecurse nosync nounwind willreturn memory(argmem: read) uwtable
define internal double @GetStreamTime(ptr nocapture noundef readonly %0) #6 {
  %2 = getelementptr inbounds nuw i8, ptr %0, i64 472
  %3 = load i64, ptr %2, align 8
  %4 = uitofp i64 %3 to double
  %5 = getelementptr inbounds i8, ptr %0, i64 72
  %6 = load double, ptr %5, align 8
  %7 = fdiv double %4, %6
  ret double %7
}